	.file	"main.cpp"
	.text
	.local	_ZStL8__ioinit
	.comm	_ZStL8__ioinit,1,1
	.section	.text._ZN6StringC2EPKc,"axG",@progbits,_ZN6StringC5EPKc,comdat
	.align 2
	.weak	_ZN6StringC2EPKc
	.type	_ZN6StringC2EPKc, @function
_ZN6StringC2EPKc:
.LFB1744:
	.cfi_startproc
	endbr64
	pushq	%rbp
	.cfi_def_cfa_offset 16
	.cfi_offset 6, -16
	movq	%rsp, %rbp
	.cfi_def_cfa_register 6
	subq	$16, %rsp
	movq	%rdi, -8(%rbp)
	movq	%rsi, -16(%rbp)
	movq	-16(%rbp), %rax
	movq	%rax, %rdi
	call	strlen@PLT
	movq	-8(%rbp), %rdx
	movq	%rax, (%rdx)
	movq	-8(%rbp), %rax
	movq	(%rax), %rax
	addq	$1, %rax
	movq	%rax, %rdi
	call	_Znam@PLT
	movq	%rax, %rdx
	movq	-8(%rbp), %rax
	movq	%rdx, 8(%rax)
	movq	-8(%rbp), %rax
	movq	8(%rax), %rax
	movq	-16(%rbp), %rdx
	movq	%rdx, %rsi
	movq	%rax, %rdi
	call	strcpy@PLT
	nop
	leave
	.cfi_def_cfa 7, 8
	ret
	.cfi_endproc
.LFE1744:
	.size	_ZN6StringC2EPKc, .-_ZN6StringC2EPKc
	.weak	_ZN6StringC1EPKc
	.set	_ZN6StringC1EPKc,_ZN6StringC2EPKc
	.section	.text._ZN6String6appendERS_,"axG",@progbits,_ZN6String6appendERS_,comdat
	.align 2
	.weak	_ZN6String6appendERS_
	.type	_ZN6String6appendERS_, @function
_ZN6String6appendERS_:
.LFB1749:
	.cfi_startproc
	endbr64
	pushq	%rbp
	.cfi_def_cfa_offset 16
	.cfi_offset 6, -16
	movq	%rsp, %rbp
	.cfi_def_cfa_register 6
	subq	$32, %rsp
	movq	%rdi, -24(%rbp)
	movq	%rsi, -32(%rbp)
	movq	-24(%rbp), %rax
	movq	(%rax), %rdx
	movq	-32(%rbp), %rax
	movq	(%rax), %rax
	addq	%rdx, %rax
	addq	$1, %rax
	movq	%rax, %rdi
	call	_Znam@PLT
	movq	%rax, -8(%rbp)
	movq	-24(%rbp), %rax
	movq	8(%rax), %rdx
	movq	-8(%rbp), %rax
	movq	%rdx, %rsi
	movq	%rax, %rdi
	call	strcpy@PLT
	movq	-32(%rbp), %rax
	movq	8(%rax), %rdx
	movq	-8(%rbp), %rax
	movq	%rdx, %rsi
	movq	%rax, %rdi
	call	strcat@PLT
	movq	-24(%rbp), %rax
	movq	(%rax), %rdx
	movq	-32(%rbp), %rax
	movq	(%rax), %rax
	addq	%rax, %rdx
	movq	-24(%rbp), %rax
	movq	%rdx, (%rax)
	movq	-24(%rbp), %rax
	movq	(%rax), %rdx
	movq	-8(%rbp), %rax
	addq	%rdx, %rax
	movb	$0, (%rax)
	movq	-24(%rbp), %rax
	movq	8(%rax), %rax
	testq	%rax, %rax
	je	.L3
	movq	-24(%rbp), %rax
	movq	8(%rax), %rax
	movq	%rax, %rdi
	call	_ZdaPv@PLT
.L3:
	movq	-24(%rbp), %rax
	movq	-8(%rbp), %rdx
	movq	%rdx, 8(%rax)
	movq	$0, -8(%rbp)
	nop
	leave
	.cfi_def_cfa 7, 8
	ret
	.cfi_endproc
.LFE1749:
	.size	_ZN6String6appendERS_, .-_ZN6String6appendERS_
	.section	.rodata
.LC0:
	.string	"str: "
.LC1:
	.string	"size: "
	.section	.text._ZN6String5PrintEv,"axG",@progbits,_ZN6String5PrintEv,comdat
	.align 2
	.weak	_ZN6String5PrintEv
	.type	_ZN6String5PrintEv, @function
_ZN6String5PrintEv:
.LFB1750:
	.cfi_startproc
	endbr64
	pushq	%rbp
	.cfi_def_cfa_offset 16
	.cfi_offset 6, -16
	movq	%rsp, %rbp
	.cfi_def_cfa_register 6
	subq	$16, %rsp
	movq	%rdi, -8(%rbp)
	leaq	.LC0(%rip), %rax
	movq	%rax, %rsi
	leaq	_ZSt4cout(%rip), %rax
	movq	%rax, %rdi
	call	_ZStlsISt11char_traitsIcEERSt13basic_ostreamIcT_ES5_PKc@PLT
	movq	%rax, %rdx
	movq	-8(%rbp), %rax
	movq	8(%rax), %rax
	movq	%rax, %rsi
	movq	%rdx, %rdi
	call	_ZStlsISt11char_traitsIcEERSt13basic_ostreamIcT_ES5_PKc@PLT
	movl	$9, %esi
	movq	%rax, %rdi
	call	_ZStlsISt11char_traitsIcEERSt13basic_ostreamIcT_ES5_c@PLT
	movq	%rax, %rdx
	leaq	.LC1(%rip), %rax
	movq	%rax, %rsi
	movq	%rdx, %rdi
	call	_ZStlsISt11char_traitsIcEERSt13basic_ostreamIcT_ES5_PKc@PLT
	movq	%rax, %rdx
	movq	-8(%rbp), %rax
	movq	(%rax), %rax
	movq	%rax, %rsi
	movq	%rdx, %rdi
	call	_ZNSolsEm@PLT
	movq	_ZSt4endlIcSt11char_traitsIcEERSt13basic_ostreamIT_T0_ES6_@GOTPCREL(%rip), %rdx
	movq	%rdx, %rsi
	movq	%rax, %rdi
	call	_ZNSolsEPFRSoS_E@PLT
	nop
	leave
	.cfi_def_cfa 7, 8
	ret
	.cfi_endproc
.LFE1750:
	.size	_ZN6String5PrintEv, .-_ZN6String5PrintEv
	.section	.rodata
.LC2:
	.string	"Hello,"
.LC3:
	.string	" world!"
	.align 8
.LC4:
	.string	"-------------------------------------------"
	.text
	.globl	main
	.type	main, @function
main:
.LFB1751:
	.cfi_startproc
	endbr64
	pushq	%rbp
	.cfi_def_cfa_offset 16
	.cfi_offset 6, -16
	movq	%rsp, %rbp
	.cfi_def_cfa_register 6
	subq	$48, %rsp
	movq	%fs:40, %rax
	movq	%rax, -8(%rbp)
	xorl	%eax, %eax
	leaq	-48(%rbp), %rax
	leaq	.LC2(%rip), %rdx
	movq	%rdx, %rsi
	movq	%rax, %rdi
	call	_ZN6StringC1EPKc
	leaq	-48(%rbp), %rax
	movq	%rax, %rdi
	call	_ZN6String5PrintEv
	leaq	-32(%rbp), %rax
	leaq	.LC3(%rip), %rdx
	movq	%rdx, %rsi
	movq	%rax, %rdi
	call	_ZN6StringC1EPKc
	leaq	.LC4(%rip), %rax
	movq	%rax, %rsi
	leaq	_ZSt4cout(%rip), %rax
	movq	%rax, %rdi
	call	_ZStlsISt11char_traitsIcEERSt13basic_ostreamIcT_ES5_PKc@PLT
	movq	_ZSt4endlIcSt11char_traitsIcEERSt13basic_ostreamIT_T0_ES6_@GOTPCREL(%rip), %rdx
	movq	%rdx, %rsi
	movq	%rax, %rdi
	call	_ZNSolsEPFRSoS_E@PLT
	leaq	-32(%rbp), %rax
	movq	%rax, %rdi
	call	_ZN6String5PrintEv
	leaq	-32(%rbp), %rdx
	leaq	-48(%rbp), %rax
	movq	%rdx, %rsi
	movq	%rax, %rdi
	call	_ZN6String6appendERS_
	leaq	-48(%rbp), %rax
	movq	%rax, %rdi
	call	_ZN6String5PrintEv
	movl	$0, %eax
	movq	-8(%rbp), %rdx
	subq	%fs:40, %rdx
	je	.L7
	call	__stack_chk_fail@PLT
.L7:
	leave
	.cfi_def_cfa 7, 8
	ret
	.cfi_endproc
.LFE1751:
	.size	main, .-main
	.type	_Z41__static_initialization_and_destruction_0ii, @function
_Z41__static_initialization_and_destruction_0ii:
.LFB2256:
	.cfi_startproc
	endbr64
	pushq	%rbp
	.cfi_def_cfa_offset 16
	.cfi_offset 6, -16
	movq	%rsp, %rbp
	.cfi_def_cfa_register 6
	subq	$16, %rsp
	movl	%edi, -4(%rbp)
	movl	%esi, -8(%rbp)
	cmpl	$1, -4(%rbp)
	jne	.L10
	cmpl	$65535, -8(%rbp)
	jne	.L10
	leaq	_ZStL8__ioinit(%rip), %rax
	movq	%rax, %rdi
	call	_ZNSt8ios_base4InitC1Ev@PLT
	leaq	__dso_handle(%rip), %rax
	movq	%rax, %rdx
	leaq	_ZStL8__ioinit(%rip), %rax
	movq	%rax, %rsi
	movq	_ZNSt8ios_base4InitD1Ev@GOTPCREL(%rip), %rax
	movq	%rax, %rdi
	call	__cxa_atexit@PLT
.L10:
	nop
	leave
	.cfi_def_cfa 7, 8
	ret
	.cfi_endproc
.LFE2256:
	.size	_Z41__static_initialization_and_destruction_0ii, .-_Z41__static_initialization_and_destruction_0ii
	.type	_GLOBAL__sub_I_main, @function
_GLOBAL__sub_I_main:
.LFB2257:
	.cfi_startproc
	endbr64
	pushq	%rbp
	.cfi_def_cfa_offset 16
	.cfi_offset 6, -16
	movq	%rsp, %rbp
	.cfi_def_cfa_register 6
	movl	$65535, %esi
	movl	$1, %edi
	call	_Z41__static_initialization_and_destruction_0ii
	popq	%rbp
	.cfi_def_cfa 7, 8
	ret
	.cfi_endproc
.LFE2257:
	.size	_GLOBAL__sub_I_main, .-_GLOBAL__sub_I_main
	.section	.init_array,"aw"
	.align 8
	.quad	_GLOBAL__sub_I_main
	.hidden	__dso_handle
	.ident	"GCC: (Ubuntu 11.3.0-1ubuntu1~22.04) 11.3.0"
	.section	.note.GNU-stack,"",@progbits
	.section	.note.gnu.property,"a"
	.align 8
	.long	1f - 0f
	.long	4f - 1f
	.long	5
0:
	.string	"GNU"
1:
	.align 8
	.long	0xc0000002
	.long	3f - 2f
2:
	.long	0x3
3:
	.align 8
4:
